; Function Attrs: mustprogress uwtable
define hidden void @_ZN6Assimp11XFileParser30ParseDataObjectTextureFilenameERNSt7__cxx1112basic_stringIcSt11char_traitsIcESaIcEEE(ptr noundef nonnull align 8 dereferenceable(56) %this, ptr noundef nonnull align 8 dereferenceable(32) %pName) local_unnamed_addr #0 align 2 personality ptr @__gxx_personality_v0 {
entry:
  %ref.tmp.i = alloca %"class.std::__cxx11::basic_string", align 8
  tail call void @_ZN6Assimp11XFileParser20readHeadOfDataObjectEPNSt7__cxx1112basic_stringIcSt11char_traitsIcESaIcEEE(ptr noundef nonnull align 8 dereferenceable(56) %this, ptr noundef null)
  tail call void @_ZN6Assimp11XFileParser20GetNextTokenAsStringERNSt7__cxx1112basic_stringIcSt11char_traitsIcESaIcEEE(ptr noundef nonnull align 8 dereferenceable(56) %this, ptr noundef nonnull align 8 dereferenceable(32) %pName)
  call void @llvm.lifetime.start.p0(i64 32, ptr nonnull %ref.tmp.i)
  call void @_ZN6Assimp11XFileParser12GetNextTokenB5cxx11Ev(ptr nonnull sret(%"class.std::__cxx11::basic_string") align 8 %ref.tmp.i, ptr noundef nonnull align 8 dereferenceable(56) %this)
  %call.i.i.i = call noundef i32 @_ZNKSt7__cxx1112basic_stringIcSt11char_traitsIcESaIcEE7compareEPKc(ptr noundef nonnull align 8 dereferenceable(32) %ref.tmp.i, ptr noundef nonnull @.str.20) #21
  %cmp.i.i.not.i = icmp eq i32 %call.i.i.i, 0
  call void @_ZNSt7__cxx1112basic_stringIcSt11char_traitsIcESaIcEED1Ev(ptr noundef nonnull align 8 dereferenceable(32) %ref.tmp.i) #21
  br i1 %cmp.i.i.not.i, label %_ZN6Assimp11XFileParser20CheckForClosingBraceEv.exit, label %if.then.i

if.then.i:                                        ; preds = %entry
  call void @_ZN6Assimp11XFileParser14ThrowExceptionIJRA24_KcEEEvDpOT_(ptr noundef nonnull align 8 dereferenceable(56) %this, ptr noundef nonnull align 1 dereferenceable(24) @.str.71) #23
  unreachable

_ZN6Assimp11XFileParser20CheckForClosingBraceEv.exit: ; preds = %entry
  call void @llvm.lifetime.end.p0(i64 32, ptr nonnull %ref.tmp.i)
  %call = call noundef i64 @_ZNKSt7__cxx1112basic_stringIcSt11char_traitsIcESaIcEE6lengthEv(ptr noundef nonnull align 8 dereferenceable(32) %pName) #21
  %tobool.not = icmp eq i64 %call, 0
  br i1 %tobool.not, label %if.then, label %if.end

if.then:                                          ; preds = %_ZN6Assimp11XFileParser20CheckForClosingBraceEv.exit
  %call2 = call noundef ptr @_ZN6Assimp13DefaultLogger3getEv()
  call void @_ZN6Assimp6Logger4warnEPKc(ptr noundef nonnull align 8 dereferenceable(12) %call2, ptr noundef nonnull @.str.67)
  br label %if.end

if.end:                                           ; preds = %if.then, %_ZN6Assimp11XFileParser20CheckForClosingBraceEv.exit
  %call35 = call noundef i64 @_ZNKSt7__cxx1112basic_stringIcSt11char_traitsIcESaIcEE4findEPKcm(ptr noundef nonnull align 8 dereferenceable(32) %pName, ptr noundef nonnull @.str.68, i64 noundef 0) #21
  %cmp.not6 = icmp eq i64 %call35, -1
  br i1 %cmp.not6, label %while.end, label %while.body

while.body:                                       ; preds = %if.end, %while.body
  %call4 = call noundef i64 @_ZNKSt7__cxx1112basic_stringIcSt11char_traitsIcESaIcEE4findEPKcm(ptr noundef nonnull align 8 dereferenceable(32) %pName, ptr noundef nonnull @.str.68, i64 noundef 0) #21
  %call5 = call noundef nonnull align 8 dereferenceable(32) ptr @_ZNSt7__cxx1112basic_stringIcSt11char_traitsIcESaIcEE7replaceEmmPKc(ptr noundef nonnull align 8 dereferenceable(32) %pName, i64 noundef %call4, i64 noundef 2, ptr noundef nonnull @.str.69)
  %call3 = call noundef i64 @_ZNKSt7__cxx1112basic_stringIcSt11char_traitsIcESaIcEE4findEPKcm(ptr noundef nonnull align 8 dereferenceable(32) %pName, ptr noundef nonnull @.str.68, i64 noundef 0) #21
  %cmp.not = icmp eq i64 %call3, -1
  br i1 %cmp.not, label %while.end, label %while.body, !llvm.loop !55

while.end:                                        ; preds = %while.body, %if.end
  ret void
}